; Function Attrs: nounwind sspstrong uwtable
define internal i64 @ossl_ssl_npn_protocol(i64 noundef %0) #0 {
  %2 = alloca ptr, align 8
  %3 = alloca i32, align 4
  call void @llvm.lifetime.start.p0(i64 8, ptr nonnull %2) #9
  call void @llvm.lifetime.start.p0(i64 4, ptr nonnull %3) #9
  %4 = tail call ptr @rb_check_typeddata(i64 noundef %0, ptr noundef nonnull @ossl_ssl_type) #9
  %.not = icmp eq ptr %4, null
  br i1 %.not, label %5, label %7

5:                                                ; preds = %1
  %6 = load i64, ptr @rb_eRuntimeError, align 8, !tbaa !10
  tail call void (i64, ptr, ...) @ossl_raise(i64 noundef %6, ptr noundef nonnull @.str.267) #10
  unreachable

7:                                                ; preds = %1
  call void @SSL_get0_next_proto_negotiated(ptr noundef nonnull %4, ptr noundef nonnull %2, ptr noundef nonnull %3) #9
  %8 = load i32, ptr %3, align 4, !tbaa !6
  %.not5 = icmp eq i32 %8, 0
  br i1 %.not5, label %13, label %9

9:                                                ; preds = %7
  %10 = load ptr, ptr %2, align 8, !tbaa !46
  %11 = zext i32 %8 to i64
  %12 = call i64 @rb_str_new(ptr noundef %10, i64 noundef %11) #9
  br label %13

13:                                               ; preds = %7, %9
  %.0 = phi i64 [ %12, %9 ], [ 4, %7 ]
  call void @llvm.lifetime.end.p0(i64 4, ptr nonnull %3) #9
  call void @llvm.lifetime.end.p0(i64 8, ptr nonnull %2) #9
  ret i64 %.0
}